target datalayout = "e-m:e-p270:32:32-p271:32:32-p272:64:64-i64:64-i128:128-f80:128-n8:16:32:64-S128"
target triple = "x86_64-unknown-linux-gnu"

; Function Attrs: mustprogress uwtable
define void @_ZN7openvdb5v11_02io7Archive19readGridCompressionERSi(ptr noundef nonnull align 8 dereferenceable(16) %is) #4 align 2 {
entry:
  %is.addr = alloca ptr, align 8
  %c = alloca i32, align 4
  store ptr %is, ptr %is.addr, align 8
  %0 = load ptr, ptr %is.addr, align 8
  %vtable = load ptr, ptr %0, align 8
  %vbase.offset.ptr = getelementptr i8, ptr %vtable, i64 -24
  %vbase.offset = load i64, ptr %vbase.offset.ptr, align 8
  %add.ptr = getelementptr inbounds i8, ptr %0, i64 %vbase.offset
  %call = call noundef i32 @_ZN7openvdb5v11_02io16getFormatVersionERSt8ios_base(ptr noundef nonnull align 8 dereferenceable(216) %add.ptr)
  %cmp = icmp uge i32 %call, 222
  br i1 %cmp, label %if.then, label %if.end

if.then:                                          ; preds = %entry
  store i32 0, ptr %c, align 4
  %1 = load ptr, ptr %is.addr, align 8
  %call1 = call noundef nonnull align 8 dereferenceable(16) ptr @_ZNSi4readEPcl(ptr noundef nonnull align 8 dereferenceable(16) %1, ptr noundef %c, i64 noundef 4)
  %2 = load ptr, ptr %is.addr, align 8
  %vtable2 = load ptr, ptr %2, align 8
  %vbase.offset.ptr3 = getelementptr i8, ptr %vtable2, i64 -24
  %vbase.offset4 = load i64, ptr %vbase.offset.ptr3, align 8
  %add.ptr5 = getelementptr inbounds i8, ptr %2, i64 %vbase.offset4
  %3 = load i32, ptr %c, align 4
  call void @_ZN7openvdb5v11_02io18setDataCompressionERSt8ios_basej(ptr noundef nonnull align 8 dereferenceable(216) %add.ptr5, i32 noundef %3)
  br label %if.end

if.end:                                           ; preds = %if.then, %entry
  ret void
}