; Function Attrs: mustprogress uwtable
define void @_ZN7openvdb5v11_02io7Archive19readGridCompressionERSi(ptr noundef nonnull align 8 dereferenceable(16) %is) local_unnamed_addr #6 align 2 {
entry:
  %c = alloca i32, align 4
  %vtable = load ptr, ptr %is, align 8
  %vbase.offset.ptr = getelementptr i8, ptr %vtable, i64 -24
  %vbase.offset = load i64, ptr %vbase.offset.ptr, align 8
  %add.ptr = getelementptr inbounds i8, ptr %is, i64 %vbase.offset
  %call = tail call noundef i32 @_ZN7openvdb5v11_02io16getFormatVersionERSt8ios_base(ptr noundef nonnull align 8 dereferenceable(216) %add.ptr)
  %cmp = icmp ugt i32 %call, 221
  br i1 %cmp, label %if.then, label %if.end

if.then:                                          ; preds = %entry
  store i32 0, ptr %c, align 4
  %call1 = call noundef nonnull align 8 dereferenceable(16) ptr @_ZNSi4readEPcl(ptr noundef nonnull align 8 dereferenceable(16) %is, ptr noundef nonnull %c, i64 noundef 4)
  %vtable2 = load ptr, ptr %is, align 8
  %vbase.offset.ptr3 = getelementptr i8, ptr %vtable2, i64 -24
  %vbase.offset4 = load i64, ptr %vbase.offset.ptr3, align 8
  %add.ptr5 = getelementptr inbounds i8, ptr %is, i64 %vbase.offset4
  %0 = load i32, ptr %c, align 4
  call void @_ZN7openvdb5v11_02io18setDataCompressionERSt8ios_basej(ptr noundef nonnull align 8 dereferenceable(216) %add.ptr5, i32 noundef %0)
  br label %if.end

if.end:                                           ; preds = %if.then, %entry
  ret void
}